; Function Attrs: mustprogress uwtable
define hidden void @_ZN4cvc58internal6theory7strings10StringsFmf31StringSumLengthDecisionStrategyC2ERNS0_3EnvENS1_9ValuationE(ptr noundef nonnull align 8 dereferenceable(192) %this, ptr noundef nonnull align 8 dereferenceable(576) %env, ptr %valuation.coerce) unnamed_addr #3 align 2 personality ptr @__gxx_personality_v0 {
entry:
  tail call void @_ZN4cvc58internal6theory19DecisionStrategyFmfC2ERNS0_3EnvENS1_9ValuationE(ptr noundef nonnull align 8 dereferenceable(144) %this, ptr noundef nonnull align 8 dereferenceable(576) %env, ptr %valuation.coerce)
  store ptr getelementptr inbounds ({ [8 x ptr] }, ptr @_ZTVN4cvc58internal6theory7strings10StringsFmf31StringSumLengthDecisionStrategyE, i64 0, i32 0, i64 2), ptr %this, align 8
  %call = invoke noundef ptr @_ZNK4cvc58internal6EnvObj11userContextEv(ptr noundef nonnull align 8 dereferenceable(16) %this)
          to label %invoke.cont unwind label %lpad

invoke.cont:                                      ; preds = %entry
  %d_inputVarLsum = getelementptr inbounds i8, ptr %this, i64 144
  invoke void @_ZN4cvc57context10ContextObjC2EPNS0_7ContextE(ptr noundef nonnull align 8 dereferenceable(40) %d_inputVarLsum, ptr noundef %call)
          to label %.noexc unwind label %lpad

.noexc:                                           ; preds = %invoke.cont
  store ptr getelementptr inbounds ({ [6 x ptr] }, ptr @_ZTVN4cvc57context3CDOINS_8internal12NodeTemplateILb1EEEEE, i64 0, i32 0, i64 2), ptr %d_inputVarLsum, align 8
  %0 = load atomic i8, ptr @_ZGVZN4cvc58internal4expr9NodeValue4nullEvE6s_null acquire, align 8
  %guard.uninitialized.i.i.i = icmp eq i8 %0, 0
  br i1 %guard.uninitialized.i.i.i, label %init.check.i.i.i, label %invoke.cont3, !prof !13

init.check.i.i.i:                                 ; preds = %.noexc
  %1 = tail call i32 @__cxa_guard_acquire(ptr nonnull @_ZGVZN4cvc58internal4expr9NodeValue4nullEvE6s_null) #18
  %tobool.not.i.i.i = icmp eq i32 %1, 0
  br i1 %tobool.not.i.i.i, label %invoke.cont3, label %init.i.i.i

init.i.i.i:                                       ; preds = %init.check.i.i.i
  %call.i.i.i = invoke noalias noundef nonnull dereferenceable(16) ptr @_Znwm(i64 noundef 16) #20
          to label %invoke.cont.i.i.i unwind label %lpad.i.i.i

invoke.cont.i.i.i:                                ; preds = %init.i.i.i
  store i64 1152920405095219200, ptr %call.i.i.i, align 8
  %d_kind.i.i.i.i = getelementptr inbounds i8, ptr %call.i.i.i, i64 8
  store i16 0, ptr %d_kind.i.i.i.i, align 8
  %d_nchildren.i.i.i.i = getelementptr inbounds i8, ptr %call.i.i.i, i64 12
  store i32 0, ptr %d_nchildren.i.i.i.i, align 4
  store ptr %call.i.i.i, ptr @_ZZN4cvc58internal4expr9NodeValue4nullEvE6s_null, align 8
  tail call void @__cxa_guard_release(ptr nonnull @_ZGVZN4cvc58internal4expr9NodeValue4nullEvE6s_null) #18
  br label %invoke.cont3

lpad.i.i.i:                                       ; preds = %init.i.i.i
  %2 = landingpad { ptr, i32 }
          cleanup
  tail call void @__cxa_guard_abort(ptr nonnull @_ZGVZN4cvc58internal4expr9NodeValue4nullEvE6s_null) #18
  br label %lpad.body

invoke.cont3:                                     ; preds = %invoke.cont.i.i.i, %init.check.i.i.i, %.noexc
  %d_data.i = getelementptr inbounds i8, ptr %this, i64 184
  %3 = load ptr, ptr @_ZZN4cvc58internal4expr9NodeValue4nullEvE6s_null, align 8
  store ptr %3, ptr %d_data.i, align 8
  ret void

lpad:                                             ; preds = %invoke.cont, %entry
  %4 = landingpad { ptr, i32 }
          cleanup
  br label %lpad.body

lpad.body:                                        ; preds = %lpad.i.i.i, %lpad
  %eh.lpad-body = phi { ptr, i32 } [ %4, %lpad ], [ %2, %lpad.i.i.i ]
  tail call void @_ZN4cvc58internal6theory19DecisionStrategyFmfD2Ev(ptr noundef nonnull align 8 dereferenceable(144) %this) #18
  resume { ptr, i32 } %eh.lpad-body
}